target datalayout = "e-m:e-p270:32:32-p271:32:32-p272:64:64-i64:64-i128:128-f80:128-n8:16:32:64-S128"
target triple = "x86_64-pc-linux-gnu"

%struct.opts_multi_pack_index = type { ptr, ptr, ptr, i64, i32, i32 }
%struct.option = type { i32, i32, ptr, ptr, ptr, ptr, i32, ptr, i64, ptr, i64, ptr }
%struct.repository = type { ptr, ptr, ptr, ptr, ptr, %struct.strmap, %struct.strmap, %struct.repo_path_cache, ptr, ptr, ptr, ptr, %struct.repo_settings, ptr, ptr, ptr, ptr, ptr, ptr, i32, i32, i32, ptr, ptr, i32, i32, i8 }
%struct.strmap = type { %struct.hashmap, ptr, i8 }
%struct.hashmap = type { ptr, ptr, ptr, i32, i32, i32, i32, i8 }
%struct.repo_path_cache = type { ptr, ptr, ptr, ptr, ptr, ptr, ptr }
%struct.repo_settings = type { i32, i32, i32, i32, i32, i32, i32, i32, i32, i32, i32, i32, ptr, i32, i32, i32, i32, i32, i32, i32, i64, i64, i64 }
%struct.raw_object_store = type { ptr, ptr, ptr, i32, ptr, ptr, i8, %union.pthread_mutex_t, ptr, i8, ptr, ptr, %struct.list_head, %struct.anon, %struct.hashmap, i64, i8 }
%union.pthread_mutex_t = type { %struct.__pthread_mutex_s }
%struct.__pthread_mutex_s = type { i32, i32, i32, i32, i32, i16, i16, %struct.__pthread_internal_list }
%struct.__pthread_internal_list = type { ptr, ptr }
%struct.list_head = type { ptr, ptr }
%struct.anon = type { ptr, i32 }
%struct.object_directory = type { ptr, [8 x i32], ptr, ptr, i32, i32, ptr }

@.str = private unnamed_addr constant [7 x i8] c"repack\00", align 1
@.str.1 = private unnamed_addr constant [6 x i8] c"write\00", align 1
@.str.2 = private unnamed_addr constant [7 x i8] c"verify\00", align 1
@.str.3 = private unnamed_addr constant [7 x i8] c"expire\00", align 1
@the_repository = external global ptr, align 8
@opts = internal global %struct.opts_multi_pack_index zeroinitializer, align 8
@builtin_multi_pack_index_usage = internal constant [5 x ptr] [ptr @.str.24, ptr @.str.25, ptr @.str.26, ptr @.str.10, ptr null], align 16

; Function Attrs: inlinehint nounwind uwtable
define internal void @git_config(ptr noundef %0, ptr noundef %1) #4 {
  %3 = alloca ptr, align 8
  %4 = alloca ptr, align 8
  store ptr %0, ptr %3, align 8, !tbaa !15
  store ptr %1, ptr %4, align 8, !tbaa !15
  %5 = load ptr, ptr @the_repository, align 8, !tbaa !13
  %6 = load ptr, ptr %3, align 8, !tbaa !15
  %7 = load ptr, ptr %4, align 8, !tbaa !15
  call void @repo_config(ptr noundef %5, ptr noundef %6, ptr noundef %7)
  ret void
}

; Function Attrs: nounwind uwtable
define dso_local i32 @cmd_multi_pack_index(i32 noundef %0, ptr noundef %1, ptr noundef %2, ptr noundef %3) #0 {
  %5 = alloca i32, align 4
  %6 = alloca ptr, align 8
  %7 = alloca ptr, align 8
  %8 = alloca ptr, align 8
  %9 = alloca i32, align 4
  %10 = alloca ptr, align 8
  %11 = alloca [5 x %struct.option], align 16
  %12 = alloca ptr, align 8
  store i32 %0, ptr %5, align 4, !tbaa !4
  store ptr %1, ptr %6, align 8, !tbaa !8
  store ptr %2, ptr %7, align 8, !tbaa !11
  store ptr %3, ptr %8, align 8, !tbaa !13
  call void @llvm.lifetime.start.p0(i64 4, ptr %9) #9
  call void @llvm.lifetime.start.p0(i64 8, ptr %10) #9
  store ptr null, ptr %10, align 8, !tbaa !15
  call void @llvm.lifetime.start.p0(i64 440, ptr %11) #9
  %13 = getelementptr inbounds nuw %struct.option, ptr %11, i32 0, i32 0
  store i32 4, ptr %13, align 8, !tbaa !16
  %14 = getelementptr inbounds nuw %struct.option, ptr %11, i32 0, i32 1
  store i32 0, ptr %14, align 4, !tbaa !19
  %15 = getelementptr inbounds nuw %struct.option, ptr %11, i32 0, i32 2
  store ptr @.str, ptr %15, align 8, !tbaa !20
  %16 = getelementptr inbounds nuw %struct.option, ptr %11, i32 0, i32 3
  store ptr %10, ptr %16, align 8, !tbaa !21
  %17 = getelementptr inbounds nuw %struct.option, ptr %11, i32 0, i32 4
  store ptr null, ptr %17, align 8, !tbaa !22
  %18 = getelementptr inbounds nuw %struct.option, ptr %11, i32 0, i32 5
  store ptr null, ptr %18, align 8, !tbaa !23
  %19 = getelementptr inbounds nuw %struct.option, ptr %11, i32 0, i32 6
  store i32 0, ptr %19, align 8, !tbaa !24
  %20 = getelementptr i8, ptr %11, i64 44
  call void @llvm.memset.p0.i64(ptr align 4 %20, i8 0, i64 4, i1 false)
  %21 = getelementptr inbounds nuw %struct.option, ptr %11, i32 0, i32 7
  store ptr null, ptr %21, align 8, !tbaa !25
  %22 = getelementptr inbounds nuw %struct.option, ptr %11, i32 0, i32 8
  store i64 0, ptr %22, align 8, !tbaa !26
  %23 = getelementptr inbounds nuw %struct.option, ptr %11, i32 0, i32 9
  store ptr null, ptr %23, align 8, !tbaa !27
  %24 = getelementptr inbounds nuw %struct.option, ptr %11, i32 0, i32 10
  store i64 0, ptr %24, align 8, !tbaa !28
  %25 = getelementptr inbounds nuw %struct.option, ptr %11, i32 0, i32 11
  store ptr @cmd_multi_pack_index_repack, ptr %25, align 8, !tbaa !29
  %26 = getelementptr inbounds %struct.option, ptr %11, i64 1
  %27 = getelementptr inbounds nuw %struct.option, ptr %26, i32 0, i32 0
  store i32 4, ptr %27, align 8, !tbaa !16
  %28 = getelementptr inbounds nuw %struct.option, ptr %26, i32 0, i32 1
  store i32 0, ptr %28, align 4, !tbaa !19
  %29 = getelementptr inbounds nuw %struct.option, ptr %26, i32 0, i32 2
  store ptr @.str.1, ptr %29, align 8, !tbaa !20
  %30 = getelementptr inbounds nuw %struct.option, ptr %26, i32 0, i32 3
  store ptr %10, ptr %30, align 8, !tbaa !21
  %31 = getelementptr inbounds nuw %struct.option, ptr %26, i32 0, i32 4
  store ptr null, ptr %31, align 8, !tbaa !22
  %32 = getelementptr inbounds nuw %struct.option, ptr %26, i32 0, i32 5
  store ptr null, ptr %32, align 8, !tbaa !23
  %33 = getelementptr inbounds nuw %struct.option, ptr %26, i32 0, i32 6
  store i32 0, ptr %33, align 8, !tbaa !24
  %34 = getelementptr i8, ptr %26, i64 44
  call void @llvm.memset.p0.i64(ptr align 4 %34, i8 0, i64 4, i1 false)
  %35 = getelementptr inbounds nuw %struct.option, ptr %26, i32 0, i32 7
  store ptr null, ptr %35, align 8, !tbaa !25
  %36 = getelementptr inbounds nuw %struct.option, ptr %26, i32 0, i32 8
  store i64 0, ptr %36, align 8, !tbaa !26
  %37 = getelementptr inbounds nuw %struct.option, ptr %26, i32 0, i32 9
  store ptr null, ptr %37, align 8, !tbaa !27
  %38 = getelementptr inbounds nuw %struct.option, ptr %26, i32 0, i32 10
  store i64 0, ptr %38, align 8, !tbaa !28
  %39 = getelementptr inbounds nuw %struct.option, ptr %26, i32 0, i32 11
  store ptr @cmd_multi_pack_index_write, ptr %39, align 8, !tbaa !29
  %40 = getelementptr inbounds %struct.option, ptr %11, i64 2
  %41 = getelementptr inbounds nuw %struct.option, ptr %40, i32 0, i32 0
  store i32 4, ptr %41, align 8, !tbaa !16
  %42 = getelementptr inbounds nuw %struct.option, ptr %40, i32 0, i32 1
  store i32 0, ptr %42, align 4, !tbaa !19
  %43 = getelementptr inbounds nuw %struct.option, ptr %40, i32 0, i32 2
  store ptr @.str.2, ptr %43, align 8, !tbaa !20
  %44 = getelementptr inbounds nuw %struct.option, ptr %40, i32 0, i32 3
  store ptr %10, ptr %44, align 8, !tbaa !21
  %45 = getelementptr inbounds nuw %struct.option, ptr %40, i32 0, i32 4
  store ptr null, ptr %45, align 8, !tbaa !22
  %46 = getelementptr inbounds nuw %struct.option, ptr %40, i32 0, i32 5
  store ptr null, ptr %46, align 8, !tbaa !23
  %47 = getelementptr inbounds nuw %struct.option, ptr %40, i32 0, i32 6
  store i32 0, ptr %47, align 8, !tbaa !24
  %48 = getelementptr i8, ptr %40, i64 44
  call void @llvm.memset.p0.i64(ptr align 4 %48, i8 0, i64 4, i1 false)
  %49 = getelementptr inbounds nuw %struct.option, ptr %40, i32 0, i32 7
  store ptr null, ptr %49, align 8, !tbaa !25
  %50 = getelementptr inbounds nuw %struct.option, ptr %40, i32 0, i32 8
  store i64 0, ptr %50, align 8, !tbaa !26
  %51 = getelementptr inbounds nuw %struct.option, ptr %40, i32 0, i32 9
  store ptr null, ptr %51, align 8, !tbaa !27
  %52 = getelementptr inbounds nuw %struct.option, ptr %40, i32 0, i32 10
  store i64 0, ptr %52, align 8, !tbaa !28
  %53 = getelementptr inbounds nuw %struct.option, ptr %40, i32 0, i32 11
  store ptr @cmd_multi_pack_index_verify, ptr %53, align 8, !tbaa !29
  %54 = getelementptr inbounds %struct.option, ptr %11, i64 3
  %55 = getelementptr inbounds nuw %struct.option, ptr %54, i32 0, i32 0
  store i32 4, ptr %55, align 8, !tbaa !16
  %56 = getelementptr inbounds nuw %struct.option, ptr %54, i32 0, i32 1
  store i32 0, ptr %56, align 4, !tbaa !19
  %57 = getelementptr inbounds nuw %struct.option, ptr %54, i32 0, i32 2
  store ptr @.str.3, ptr %57, align 8, !tbaa !20
  %58 = getelementptr inbounds nuw %struct.option, ptr %54, i32 0, i32 3
  store ptr %10, ptr %58, align 8, !tbaa !21
  %59 = getelementptr inbounds nuw %struct.option, ptr %54, i32 0, i32 4
  store ptr null, ptr %59, align 8, !tbaa !22
  %60 = getelementptr inbounds nuw %struct.option, ptr %54, i32 0, i32 5
  store ptr null, ptr %60, align 8, !tbaa !23
  %61 = getelementptr inbounds nuw %struct.option, ptr %54, i32 0, i32 6
  store i32 0, ptr %61, align 8, !tbaa !24
  %62 = getelementptr i8, ptr %54, i64 44
  call void @llvm.memset.p0.i64(ptr align 4 %62, i8 0, i64 4, i1 false)
  %63 = getelementptr inbounds nuw %struct.option, ptr %54, i32 0, i32 7
  store ptr null, ptr %63, align 8, !tbaa !25
  %64 = getelementptr inbounds nuw %struct.option, ptr %54, i32 0, i32 8
  store i64 0, ptr %64, align 8, !tbaa !26
  %65 = getelementptr inbounds nuw %struct.option, ptr %54, i32 0, i32 9
  store ptr null, ptr %65, align 8, !tbaa !27
  %66 = getelementptr inbounds nuw %struct.option, ptr %54, i32 0, i32 10
  store i64 0, ptr %66, align 8, !tbaa !28
  %67 = getelementptr inbounds nuw %struct.option, ptr %54, i32 0, i32 11
  store ptr @cmd_multi_pack_index_expire, ptr %67, align 8, !tbaa !29
  %68 = getelementptr inbounds %struct.option, ptr %11, i64 4
  call void @llvm.memset.p0.i64(ptr align 8 %68, i8 0, i64 88, i1 false)
  %69 = getelementptr inbounds nuw %struct.option, ptr %68, i32 0, i32 0
  store i32 0, ptr %69, align 8, !tbaa !16
  call void @llvm.lifetime.start.p0(i64 8, ptr %12) #9
  %70 = getelementptr inbounds [5 x %struct.option], ptr %11, i64 0, i64 0
  %71 = call ptr @parse_options_concat(ptr noundef %70, ptr noundef @common_opts)
  store ptr %71, ptr %12, align 8, !tbaa !30
  call void @disable_replace_refs()
  call void @git_config(ptr noundef @git_default_config, ptr noundef null)
  %72 = load ptr, ptr @the_repository, align 8, !tbaa !13
  %73 = icmp ne ptr %72, null
  br i1 %73, label %74, label %95

74:                                               ; preds = %4
  %75 = load ptr, ptr @the_repository, align 8, !tbaa !13
  %76 = getelementptr inbounds nuw %struct.repository, ptr %75, i32 0, i32 2
  %77 = load ptr, ptr %76, align 8, !tbaa !32
  %78 = icmp ne ptr %77, null
  br i1 %78, label %79, label %95

79:                                               ; preds = %74
  %80 = load ptr, ptr @the_repository, align 8, !tbaa !13
  %81 = getelementptr inbounds nuw %struct.repository, ptr %80, i32 0, i32 2
  %82 = load ptr, ptr %81, align 8, !tbaa !32
  %83 = getelementptr inbounds nuw %struct.raw_object_store, ptr %82, i32 0, i32 0
  %84 = load ptr, ptr %83, align 8, !tbaa !50
  %85 = icmp ne ptr %84, null
  br i1 %85, label %86, label %95

86:                                               ; preds = %79
  %87 = load ptr, ptr @the_repository, align 8, !tbaa !13
  %88 = getelementptr inbounds nuw %struct.repository, ptr %87, i32 0, i32 2
  %89 = load ptr, ptr %88, align 8, !tbaa !32
  %90 = getelementptr inbounds nuw %struct.raw_object_store, ptr %89, i32 0, i32 0
  %91 = load ptr, ptr %90, align 8, !tbaa !50
  %92 = getelementptr inbounds nuw %struct.object_directory, ptr %91, i32 0, i32 6
  %93 = load ptr, ptr %92, align 8, !tbaa !63
  %94 = call ptr @xstrdup(ptr noundef %93)
  store ptr %94, ptr @opts, align 8, !tbaa !67
  br label %95

95:                                               ; preds = %86, %79, %74, %4
  %96 = load i32, ptr %5, align 4, !tbaa !4
  %97 = load ptr, ptr %6, align 8, !tbaa !8
  %98 = load ptr, ptr %7, align 8, !tbaa !11
  %99 = load ptr, ptr %12, align 8, !tbaa !30
  %100 = call i32 @parse_options(i32 noundef %96, ptr noundef %97, ptr noundef %98, ptr noundef %99, ptr noundef @builtin_multi_pack_index_usage, i32 noundef 0)
  store i32 %100, ptr %5, align 4, !tbaa !4
  br label %101

101:                                              ; preds = %95
  %102 = load ptr, ptr %12, align 8, !tbaa !30
  call void @free(ptr noundef %102) #9
  store ptr null, ptr %12, align 8, !tbaa !30
  br label %103

103:                                              ; preds = %101
  br label %104

104:                                              ; preds = %103
  %105 = load ptr, ptr %10, align 8, !tbaa !15
  %106 = load i32, ptr %5, align 4, !tbaa !4
  %107 = load ptr, ptr %6, align 8, !tbaa !8
  %108 = load ptr, ptr %7, align 8, !tbaa !11
  %109 = load ptr, ptr %8, align 8, !tbaa !13
  %110 = call i32 %105(i32 noundef %106, ptr noundef %107, ptr noundef %108, ptr noundef %109)
  store i32 %110, ptr %9, align 4, !tbaa !4
  %111 = load ptr, ptr @opts, align 8, !tbaa !67
  call void @free(ptr noundef %111) #9
  %112 = load i32, ptr %9, align 4, !tbaa !4
  call void @llvm.lifetime.end.p0(i64 8, ptr %12) #9
  call void @llvm.lifetime.end.p0(i64 440, ptr %11) #9
  call void @llvm.lifetime.end.p0(i64 8, ptr %10) #9
  call void @llvm.lifetime.end.p0(i64 4, ptr %9) #9
  ret i32 %112
}