; Function Attrs: nounwind uwtable
define dso_local i32 @cmd_multi_pack_index(i32 noundef %0, ptr noundef %1, ptr noundef %2, ptr noundef %3) local_unnamed_addr #0 {
  %5 = alloca ptr, align 8
  %6 = alloca [5 x %struct.option], align 16
  call void @llvm.lifetime.start.p0(i64 8, ptr nonnull %5) #9
  store ptr null, ptr %5, align 8, !tbaa !4
  call void @llvm.lifetime.start.p0(i64 440, ptr nonnull %6) #9
  store i32 4, ptr %6, align 16, !tbaa !8
  %7 = getelementptr inbounds nuw i8, ptr %6, i64 4
  store i32 0, ptr %7, align 4, !tbaa !13
  %8 = getelementptr inbounds nuw i8, ptr %6, i64 8
  store ptr @.str, ptr %8, align 8, !tbaa !14
  %9 = getelementptr inbounds nuw i8, ptr %6, i64 16
  store ptr %5, ptr %9, align 16, !tbaa !15
  %10 = getelementptr inbounds nuw i8, ptr %6, i64 24
  %11 = getelementptr inbounds nuw i8, ptr %6, i64 80
  call void @llvm.memset.p0.i64(ptr noundef nonnull align 8 dereferenceable(56) %10, i8 0, i64 56, i1 false)
  store ptr @cmd_multi_pack_index_repack, ptr %11, align 16, !tbaa !16
  %12 = getelementptr inbounds nuw i8, ptr %6, i64 88
  store i32 4, ptr %12, align 8, !tbaa !8
  %13 = getelementptr inbounds nuw i8, ptr %6, i64 92
  store i32 0, ptr %13, align 4, !tbaa !13
  %14 = getelementptr inbounds nuw i8, ptr %6, i64 96
  store ptr @.str.1, ptr %14, align 16, !tbaa !14
  %15 = getelementptr inbounds nuw i8, ptr %6, i64 104
  store ptr %5, ptr %15, align 8, !tbaa !15
  %16 = getelementptr inbounds nuw i8, ptr %6, i64 112
  %17 = getelementptr inbounds nuw i8, ptr %6, i64 168
  call void @llvm.memset.p0.i64(ptr noundef nonnull align 16 dereferenceable(56) %16, i8 0, i64 56, i1 false)
  store ptr @cmd_multi_pack_index_write, ptr %17, align 8, !tbaa !16
  %18 = getelementptr inbounds nuw i8, ptr %6, i64 176
  store i32 4, ptr %18, align 16, !tbaa !8
  %19 = getelementptr inbounds nuw i8, ptr %6, i64 180
  store i32 0, ptr %19, align 4, !tbaa !13
  %20 = getelementptr inbounds nuw i8, ptr %6, i64 184
  store ptr @.str.2, ptr %20, align 8, !tbaa !14
  %21 = getelementptr inbounds nuw i8, ptr %6, i64 192
  store ptr %5, ptr %21, align 16, !tbaa !15
  %22 = getelementptr inbounds nuw i8, ptr %6, i64 200
  %23 = getelementptr inbounds nuw i8, ptr %6, i64 256
  call void @llvm.memset.p0.i64(ptr noundef nonnull align 8 dereferenceable(56) %22, i8 0, i64 56, i1 false)
  store ptr @cmd_multi_pack_index_verify, ptr %23, align 16, !tbaa !16
  %24 = getelementptr inbounds nuw i8, ptr %6, i64 264
  store i32 4, ptr %24, align 8, !tbaa !8
  %25 = getelementptr inbounds nuw i8, ptr %6, i64 268
  store i32 0, ptr %25, align 4, !tbaa !13
  %26 = getelementptr inbounds nuw i8, ptr %6, i64 272
  store ptr @.str.3, ptr %26, align 16, !tbaa !14
  %27 = getelementptr inbounds nuw i8, ptr %6, i64 280
  store ptr %5, ptr %27, align 8, !tbaa !15
  %28 = getelementptr inbounds nuw i8, ptr %6, i64 288
  %29 = getelementptr inbounds nuw i8, ptr %6, i64 344
  call void @llvm.memset.p0.i64(ptr noundef nonnull align 16 dereferenceable(56) %28, i8 0, i64 56, i1 false)
  store ptr @cmd_multi_pack_index_expire, ptr %29, align 8, !tbaa !16
  %30 = getelementptr inbounds nuw i8, ptr %6, i64 352
  call void @llvm.memset.p0.i64(ptr noundef nonnull align 16 dereferenceable(88) %30, i8 0, i64 88, i1 false)
  %31 = call ptr @parse_options_concat(ptr noundef nonnull %6, ptr noundef nonnull @common_opts) #9
  call void @disable_replace_refs() #9
  %32 = load ptr, ptr @the_repository, align 8, !tbaa !17
  call void @repo_config(ptr noundef %32, ptr noundef nonnull @git_default_config, ptr noundef null) #9
  %33 = load ptr, ptr @the_repository, align 8, !tbaa !17
  %.not = icmp eq ptr %33, null
  br i1 %.not, label %43, label %34

34:                                               ; preds = %4
  %35 = getelementptr inbounds nuw i8, ptr %33, i64 16
  %36 = load ptr, ptr %35, align 8, !tbaa !19
  %.not11 = icmp eq ptr %36, null
  br i1 %.not11, label %43, label %37

37:                                               ; preds = %34
  %38 = load ptr, ptr %36, align 8, !tbaa !37
  %.not12 = icmp eq ptr %38, null
  br i1 %.not12, label %43, label %39

39:                                               ; preds = %37
  %40 = getelementptr inbounds nuw i8, ptr %38, i64 64
  %41 = load ptr, ptr %40, align 8, !tbaa !50
  %42 = call ptr @xstrdup(ptr noundef %41) #9
  store ptr %42, ptr @opts, align 8, !tbaa !54
  br label %43

43:                                               ; preds = %39, %37, %34, %4
  %44 = call i32 @parse_options(i32 noundef %0, ptr noundef %1, ptr noundef %2, ptr noundef %31, ptr noundef nonnull @builtin_multi_pack_index_usage, i32 noundef 0) #9
  call void @free(ptr noundef %31) #9
  %45 = load ptr, ptr %5, align 8, !tbaa !4
  %46 = call i32 %45(i32 noundef %44, ptr noundef %1, ptr noundef %2, ptr noundef %3) #9
  %47 = load ptr, ptr @opts, align 8, !tbaa !54
  call void @free(ptr noundef %47) #9
  call void @llvm.lifetime.end.p0(i64 440, ptr nonnull %6) #9
  call void @llvm.lifetime.end.p0(i64 8, ptr nonnull %5) #9
  ret i32 %46
}